target datalayout = "e-m:e-p270:32:32-p271:32:32-p272:64:64-i64:64-i128:128-f80:128-n8:16:32:64-S128"
target triple = "x86_64-pc-linux-gnu"

%struct.dt_lib_module_t = type { %struct.dt_action_t, ptr, ptr, ptr, ptr, ptr, ptr, ptr, ptr, ptr, ptr, ptr, ptr, ptr, ptr, ptr, ptr, ptr, ptr, ptr, ptr, ptr, ptr, ptr, ptr, ptr, ptr, ptr, ptr, ptr, ptr, [128 x i8], ptr, ptr, i32, ptr, ptr, ptr, i32 }
%struct.dt_action_t = type { i32, ptr, ptr, ptr, ptr, ptr }
%struct.dt_lib_tagging_t = type { [1024 x i8], ptr, ptr, ptr, ptr, ptr, ptr, ptr, ptr, ptr, ptr, ptr, ptr, ptr, ptr, ptr, ptr, ptr, ptr, ptr, ptr, ptr, i32, i32, i32, i32, i32, ptr, ptr, %struct.anon, i32 }
%struct.anon = type { ptr, ptr, ptr, i32, i32, i32, i32, i32 }
%struct._GtkTreeIter = type { i32, ptr, ptr, ptr }

; Function Attrs: nounwind uwtable
define internal void @_dnd_clear_root(ptr noundef %0) #0 {
  %2 = alloca ptr, align 8
  %3 = alloca ptr, align 8
  %4 = alloca i32, align 4
  %5 = alloca ptr, align 8
  %6 = alloca %struct._GtkTreeIter, align 8
  %7 = alloca ptr, align 8
  store ptr %0, ptr %2, align 8, !tbaa !6
  call void @llvm.lifetime.start.p0(i64 8, ptr %3) #11
  %8 = load ptr, ptr %2, align 8, !tbaa !6
  %9 = getelementptr inbounds nuw %struct.dt_lib_module_t, ptr %8, i32 0, i32 30
  %10 = load ptr, ptr %9, align 8, !tbaa !11
  store ptr %10, ptr %3, align 8, !tbaa !19
  %11 = load ptr, ptr %3, align 8, !tbaa !19
  %12 = getelementptr inbounds nuw %struct.dt_lib_tagging_t, ptr %11, i32 0, i32 29
  %13 = getelementptr inbounds nuw %struct.anon, ptr %12, i32 0, i32 6
  %14 = load i32, ptr %13, align 4, !tbaa !127
  %15 = icmp ne i32 %14, 0
  br i1 %15, label %17, label %16

16:                                               ; preds = %1
  store i32 1, ptr %4, align 4
  br label %44

17:                                               ; preds = %1
  call void @llvm.lifetime.start.p0(i64 8, ptr %5) #11
  %18 = load ptr, ptr %3, align 8, !tbaa !19
  %19 = getelementptr inbounds nuw %struct.dt_lib_tagging_t, ptr %18, i32 0, i32 17
  %20 = load ptr, ptr %19, align 8, !tbaa !41
  %21 = call i64 @gtk_tree_model_get_type() #12
  %22 = call ptr @g_type_check_instance_cast(ptr noundef %20, i64 noundef %21)
  store ptr %22, ptr %5, align 8, !tbaa !36
  call void @llvm.lifetime.start.p0(i64 32, ptr %6) #11
  %23 = load ptr, ptr %5, align 8, !tbaa !36
  %24 = call i32 @gtk_tree_model_get_iter_first(ptr noundef %23, ptr noundef %6)
  call void @llvm.lifetime.start.p0(i64 8, ptr %7) #11
  %25 = load ptr, ptr %5, align 8, !tbaa !36
  call void (ptr, ptr, ...) @gtk_tree_model_get(ptr noundef %25, ptr noundef %6, i32 noundef 2, ptr noundef %7, i32 noundef -1)
  %26 = load ptr, ptr %7, align 8, !tbaa !49
  %27 = icmp ne ptr %26, null
  br i1 %27, label %28, label %39

28:                                               ; preds = %17
  %29 = load ptr, ptr %7, align 8, !tbaa !49
  %30 = getelementptr inbounds i8, ptr %29, i64 0
  %31 = load i8, ptr %30, align 1, !tbaa !52
  %32 = sext i8 %31 to i32
  %33 = icmp eq i32 %32, 0
  br i1 %33, label %34, label %39

34:                                               ; preds = %28
  %35 = load ptr, ptr %3, align 8, !tbaa !19
  %36 = getelementptr inbounds nuw %struct.dt_lib_tagging_t, ptr %35, i32 0, i32 17
  %37 = load ptr, ptr %36, align 8, !tbaa !41
  %38 = call i32 @gtk_tree_store_remove(ptr noundef %37, ptr noundef %6)
  br label %39

39:                                               ; preds = %34, %28, %17
  %40 = load ptr, ptr %7, align 8, !tbaa !49
  call void @g_free(ptr noundef %40)
  %41 = load ptr, ptr %3, align 8, !tbaa !19
  %42 = getelementptr inbounds nuw %struct.dt_lib_tagging_t, ptr %41, i32 0, i32 29
  %43 = getelementptr inbounds nuw %struct.anon, ptr %42, i32 0, i32 6
  store i32 0, ptr %43, align 4, !tbaa !127
  call void @llvm.lifetime.end.p0(i64 8, ptr %7) #11
  call void @llvm.lifetime.end.p0(i64 32, ptr %6) #11
  call void @llvm.lifetime.end.p0(i64 8, ptr %5) #11
  store i32 0, ptr %4, align 4
  br label %44

44:                                               ; preds = %39, %16
  call void @llvm.lifetime.end.p0(i64 8, ptr %3) #11
  %45 = load i32, ptr %4, align 4
  switch i32 %45, label %47 [
    i32 0, label %46
    i32 1, label %46
  ]

46:                                               ; preds = %44, %44
  ret void

47:                                               ; preds = %44
  unreachable
}