; Function Attrs: nounwind uwtable
define internal fastcc void @_dnd_clear_root(ptr captures(none) %.280.val) unnamed_addr #1 {
  %1 = alloca %struct._GtkTreeIter, align 8
  %2 = alloca ptr, align 8
  %3 = getelementptr inbounds nuw i8, ptr %.280.val, i64 1268
  %4 = load i32, ptr %3, align 4, !tbaa !106
  %.not = icmp eq i32 %4, 0
  br i1 %.not, label %20, label %5

5:                                                ; preds = %0
  %6 = getelementptr inbounds nuw i8, ptr %.280.val, i64 1152
  %7 = load ptr, ptr %6, align 8, !tbaa !38
  %8 = tail call i64 @gtk_tree_model_get_type() #17
  %9 = tail call ptr @g_type_check_instance_cast(ptr noundef %7, i64 noundef %8) #16
  call void @llvm.lifetime.start.p0(i64 32, ptr nonnull %1) #16
  %10 = call i32 @gtk_tree_model_get_iter_first(ptr noundef %9, ptr noundef nonnull %1) #16
  call void @llvm.lifetime.start.p0(i64 8, ptr nonnull %2) #16
  call void (ptr, ptr, ...) @gtk_tree_model_get(ptr noundef %9, ptr noundef nonnull %1, i32 noundef 2, ptr noundef nonnull %2, i32 noundef -1) #16
  %11 = load ptr, ptr %2, align 8, !tbaa !31
  %.not7 = icmp eq ptr %11, null
  br i1 %.not7, label %18, label %12

12:                                               ; preds = %5
  %13 = load i8, ptr %11, align 1, !tbaa !40
  %14 = icmp eq i8 %13, 0
  br i1 %14, label %15, label %18

15:                                               ; preds = %12
  %16 = load ptr, ptr %6, align 8, !tbaa !38
  %17 = call i32 @gtk_tree_store_remove(ptr noundef %16, ptr noundef nonnull %1) #16
  %.pre = load ptr, ptr %2, align 8, !tbaa !31
  br label %18

18:                                               ; preds = %15, %12, %5
  %19 = phi ptr [ %.pre, %15 ], [ %11, %12 ], [ null, %5 ]
  call void @g_free(ptr noundef %19) #16
  store i32 0, ptr %3, align 4, !tbaa !106
  call void @llvm.lifetime.end.p0(i64 8, ptr nonnull %2) #16
  call void @llvm.lifetime.end.p0(i64 32, ptr nonnull %1) #16
  br label %20

20:                                               ; preds = %0, %18
  ret void
}